#include <math.h>
#include <stdio.h>
#include <stdlib.h>
#include <string.h>



int main(int argc, char* argv[])
{
    int a,b,c,d,f,e,g,h;
	scanf("%d",&a);
	if(a>=1&&a<10)
		printf("%d",a);
	if(a>10&&a<100){
		b=a%10;
		c=a/10;
		d=10*b+c;
		printf("%d",d);
	}
	if(a>100&&a<1000){
	    b=a%10;
		c=(a%100)/10;
		d=a/100;
		e=100*b+10*c+d;
		printf("%d",e);
	}
	if(a>1000&&a<10000){
		b=a%10;
		c=(a%100)/10;
		d=(a%1000)/100;
		e=a/1000;
		f=1000*b+100*c+10*d+e;
		printf("%d",f);
	}
	if(a>10000&&a<100000){
        b=a%10;
		c=(a%100)/10;
		d=(a%1000)/100;
		e=(a%10000)/1000;
		f=a/10000;
		g=b*10000+c*1000+d*100+e*10+f;
		printf("%d",g);
	}
		

	
	return 0;
}

